target datalayout = "e-m:e-p270:32:32-p271:32:32-p272:64:64-i64:64-i128:128-f80:128-n8:16:32:64-S128"
target triple = "x86_64-pc-linux-gnu"

%class.anon.596 = type { i8 }
%struct.lua_Callbacks = type { ptr, ptr, ptr, ptr, ptr, ptr, ptr, ptr, ptr }
%class.anon.602 = type { i8 }
%class.anon.604 = type { i8 }
%class.anon.606 = type { i8 }
%class.anon.608 = type { i8 }

@_ZZL20DOCTEST_ANON_FUNC_78vE10singlestep = internal global i8 0, align 1
@.str.285 = private unnamed_addr constant [11 x i8] c"breakpoint\00", align 1

; Function Attrs: mustprogress nounwind uwtable
define internal noundef ptr @"_ZZZL20DOCTEST_ANON_FUNC_78vENK3$_0clEP9lua_StateENKUlS1_E_cvPFiS1_EEv"(ptr noundef nonnull align 1 dereferenceable(1) %0) #1 align 2 {
  %2 = alloca ptr, align 8
  store ptr %0, ptr %2, align 8
  ret ptr @"_ZZZL20DOCTEST_ANON_FUNC_78vENK3$_0clEP9lua_StateENUlS1_E_8__invokeES1_"
}

; Function Attrs: mustprogress nounwind uwtable
define internal noundef ptr @"_ZZZL20DOCTEST_ANON_FUNC_78vENK3$_0clEP9lua_StateENKUlS1_P9lua_DebugE1_cvPFvS1_S3_EEv"(ptr noundef nonnull align 1 dereferenceable(1) %0) #1 align 2 {
  %2 = alloca ptr, align 8
  store ptr %0, ptr %2, align 8
  ret ptr @"_ZZZL20DOCTEST_ANON_FUNC_78vENK3$_0clEP9lua_StateENUlS1_P9lua_DebugE1_8__invokeES1_S3_"
}

; Function Attrs: mustprogress nounwind uwtable
define internal noundef ptr @"_ZZZL20DOCTEST_ANON_FUNC_78vENK3$_0clEP9lua_StateENKUlS1_P9lua_DebugE0_cvPFvS1_S3_EEv"(ptr noundef nonnull align 1 dereferenceable(1) %0) #1 align 2 {
  %2 = alloca ptr, align 8
  store ptr %0, ptr %2, align 8
  ret ptr @"_ZZZL20DOCTEST_ANON_FUNC_78vENK3$_0clEP9lua_StateENUlS1_P9lua_DebugE0_8__invokeES1_S3_"
}

; Function Attrs: mustprogress nounwind uwtable
define internal noundef ptr @"_ZZZL20DOCTEST_ANON_FUNC_78vENK3$_0clEP9lua_StateENKUlS1_P9lua_DebugE_cvPFvS1_S3_EEv"(ptr noundef nonnull align 1 dereferenceable(1) %0) #1 align 2 {
  %2 = alloca ptr, align 8
  store ptr %0, ptr %2, align 8
  ret ptr @"_ZZZL20DOCTEST_ANON_FUNC_78vENK3$_0clEP9lua_StateENUlS1_P9lua_DebugE_8__invokeES1_S3_"
}

; Function Attrs: mustprogress uwtable
define internal void @"_ZZL20DOCTEST_ANON_FUNC_78vENK3$_0clEP9lua_State"(ptr noundef nonnull align 1 dereferenceable(1) %0, ptr noundef %1) #4 align 2 {
  %3 = alloca ptr, align 8
  %4 = alloca ptr, align 8
  %5 = alloca ptr, align 8
  %6 = alloca %class.anon.602, align 1
  %7 = alloca %class.anon.604, align 1
  %8 = alloca %class.anon.606, align 1
  %9 = alloca %class.anon.608, align 1
  store ptr %0, ptr %3, align 8
  store ptr %1, ptr %4, align 8
  %10 = load ptr, ptr %4, align 8
  %11 = call noundef ptr @_Z13lua_callbacksP9lua_State(ptr noundef %10)
  store ptr %11, ptr %5, align 8
  %12 = load ptr, ptr %4, align 8
  %13 = load i8, ptr @_ZZL20DOCTEST_ANON_FUNC_78vE10singlestep, align 1
  %14 = trunc i8 %13 to i1
  %15 = zext i1 %14 to i32
  call void @_Z14lua_singlestepP9lua_Statei(ptr noundef %12, i32 noundef %15)
  %16 = call noundef ptr @"_ZZZL20DOCTEST_ANON_FUNC_78vENK3$_0clEP9lua_StateENKUlS1_P9lua_DebugE_cvPFvS1_S3_EEv"(ptr noundef nonnull align 1 dereferenceable(1) %6) #16
  %17 = load ptr, ptr %5, align 8
  %18 = getelementptr inbounds %struct.lua_Callbacks, ptr %17, i32 0, i32 6
  store ptr %16, ptr %18, align 8
  %19 = call noundef ptr @"_ZZZL20DOCTEST_ANON_FUNC_78vENK3$_0clEP9lua_StateENKUlS1_P9lua_DebugE0_cvPFvS1_S3_EEv"(ptr noundef nonnull align 1 dereferenceable(1) %7) #16
  %20 = load ptr, ptr %5, align 8
  %21 = getelementptr inbounds %struct.lua_Callbacks, ptr %20, i32 0, i32 5
  store ptr %19, ptr %21, align 8
  %22 = call noundef ptr @"_ZZZL20DOCTEST_ANON_FUNC_78vENK3$_0clEP9lua_StateENKUlS1_P9lua_DebugE1_cvPFvS1_S3_EEv"(ptr noundef nonnull align 1 dereferenceable(1) %8) #16
  %23 = load ptr, ptr %5, align 8
  %24 = getelementptr inbounds %struct.lua_Callbacks, ptr %23, i32 0, i32 7
  store ptr %22, ptr %24, align 8
  %25 = load ptr, ptr %4, align 8
  %26 = call noundef ptr @"_ZZZL20DOCTEST_ANON_FUNC_78vENK3$_0clEP9lua_StateENKUlS1_E_cvPFiS1_EEv"(ptr noundef nonnull align 1 dereferenceable(1) %9) #16
  call void @_Z17lua_pushcclosurekP9lua_StatePFiS0_EPKciPFiS0_iE(ptr noundef %25, ptr noundef %26, ptr noundef @.str.285, i32 noundef 0, ptr noundef null)
  %27 = load ptr, ptr %4, align 8
  call void @_Z12lua_setfieldP9lua_StateiPKc(ptr noundef %27, i32 noundef -10002, ptr noundef @.str.285)
  ret void
}

; Function Attrs: mustprogress uwtable
define internal void @"_ZZL20DOCTEST_ANON_FUNC_78vEN3$_08__invokeEP9lua_State"(ptr noundef %0) #4 align 2 {
  %2 = alloca ptr, align 8
  %3 = alloca %class.anon.596, align 1
  store ptr %0, ptr %2, align 8
  %4 = load ptr, ptr %2, align 8
  call void @"_ZZL20DOCTEST_ANON_FUNC_78vENK3$_0clEP9lua_State"(ptr noundef nonnull align 1 dereferenceable(1) %3, ptr noundef %4)
  ret void
}