; Function Attrs: mustprogress uwtable
define internal void @"_ZZL20DOCTEST_ANON_FUNC_78vEN3$_08__invokeEP9lua_State"(ptr noundef %0) #4 align 2 {
  %2 = tail call noundef ptr @_Z13lua_callbacksP9lua_State(ptr noundef %0)
  %.b7.i = load i1, ptr @_ZZL20DOCTEST_ANON_FUNC_78vE10singlestep, align 1
  %3 = zext i1 %.b7.i to i32
  tail call void @_Z14lua_singlestepP9lua_Statei(ptr noundef %0, i32 noundef %3)
  %4 = getelementptr inbounds i8, ptr %2, i64 48
  store ptr @"_ZZZL20DOCTEST_ANON_FUNC_78vENK3$_0clEP9lua_StateENUlS1_P9lua_DebugE_8__invokeES1_S3_", ptr %4, align 8
  %5 = getelementptr inbounds i8, ptr %2, i64 40
  store ptr @"_ZZZL20DOCTEST_ANON_FUNC_78vENK3$_0clEP9lua_StateENUlS1_P9lua_DebugE0_8__invokeES1_S3_", ptr %5, align 8
  %6 = getelementptr inbounds i8, ptr %2, i64 56
  store ptr @"_ZZZL20DOCTEST_ANON_FUNC_78vENK3$_0clEP9lua_StateENUlS1_P9lua_DebugE1_8__invokeES1_S3_", ptr %6, align 8
  tail call void @_Z17lua_pushcclosurekP9lua_StatePFiS0_EPKciPFiS0_iE(ptr noundef %0, ptr noundef nonnull @"_ZZZL20DOCTEST_ANON_FUNC_78vENK3$_0clEP9lua_StateENUlS1_E_8__invokeES1_", ptr noundef nonnull @.str.285, i32 noundef 0, ptr noundef null)
  tail call void @_Z12lua_setfieldP9lua_StateiPKc(ptr noundef %0, i32 noundef -10002, ptr noundef nonnull @.str.285)
  ret void
}